
kade-wii.elf:     file format elf32-avr

Sections:
Idx Name          Size      VMA       LMA       File off  Algn
  0 .data         00000020  00800100  0000030a  0000039e  2**0
                  CONTENTS, ALLOC, LOAD, DATA
  1 .text         0000030a  00000000  00000000  00000094  2**1
                  CONTENTS, ALLOC, LOAD, READONLY, CODE
  2 .bss          00000021  00800120  00800120  000003be  2**0
                  ALLOC

Disassembly of section .text:

00000000 <__vectors>:
   0:	39 c0       	rjmp	.+114    	; 0x74 <__ctors_end>
   2:	00 00       	nop
   4:	57 c1       	rjmp	.+686    	; 0x2b4 <__vector_1>
   6:	00 00       	nop
   8:	50 c0       	rjmp	.+160    	; 0xaa <__bad_interrupt>
   a:	00 00       	nop
   c:	4e c0       	rjmp	.+156    	; 0xaa <__bad_interrupt>
   e:	00 00       	nop
  10:	4c c0       	rjmp	.+152    	; 0xaa <__bad_interrupt>
  12:	00 00       	nop
  14:	4a c0       	rjmp	.+148    	; 0xaa <__bad_interrupt>
  16:	00 00       	nop
  18:	48 c0       	rjmp	.+144    	; 0xaa <__bad_interrupt>
  1a:	00 00       	nop
  1c:	46 c0       	rjmp	.+140    	; 0xaa <__bad_interrupt>
  1e:	00 00       	nop
  20:	44 c0       	rjmp	.+136    	; 0xaa <__bad_interrupt>
  22:	00 00       	nop
  24:	42 c0       	rjmp	.+132    	; 0xaa <__bad_interrupt>
  26:	00 00       	nop
  28:	40 c0       	rjmp	.+128    	; 0xaa <__bad_interrupt>
  2a:	00 00       	nop
  2c:	3e c0       	rjmp	.+124    	; 0xaa <__bad_interrupt>
  2e:	00 00       	nop
  30:	3c c0       	rjmp	.+120    	; 0xaa <__bad_interrupt>
  32:	00 00       	nop
  34:	3a c0       	rjmp	.+116    	; 0xaa <__bad_interrupt>
  36:	00 00       	nop
  38:	38 c0       	rjmp	.+112    	; 0xaa <__bad_interrupt>
  3a:	00 00       	nop
  3c:	36 c0       	rjmp	.+108    	; 0xaa <__bad_interrupt>
  3e:	00 00       	nop
  40:	34 c0       	rjmp	.+104    	; 0xaa <__bad_interrupt>
  42:	00 00       	nop
  44:	32 c0       	rjmp	.+100    	; 0xaa <__bad_interrupt>
  46:	00 00       	nop
  48:	30 c0       	rjmp	.+96     	; 0xaa <__bad_interrupt>
  4a:	00 00       	nop
  4c:	2e c0       	rjmp	.+92     	; 0xaa <__bad_interrupt>
  4e:	00 00       	nop
  50:	2c c0       	rjmp	.+88     	; 0xaa <__bad_interrupt>
  52:	00 00       	nop
  54:	2a c0       	rjmp	.+84     	; 0xaa <__bad_interrupt>
  56:	00 00       	nop
  58:	28 c0       	rjmp	.+80     	; 0xaa <__bad_interrupt>
  5a:	00 00       	nop
  5c:	26 c0       	rjmp	.+76     	; 0xaa <__bad_interrupt>
  5e:	00 00       	nop
  60:	24 c0       	rjmp	.+72     	; 0xaa <__bad_interrupt>
  62:	00 00       	nop
  64:	22 c0       	rjmp	.+68     	; 0xaa <__bad_interrupt>
  66:	00 00       	nop
  68:	20 c0       	rjmp	.+64     	; 0xaa <__bad_interrupt>
  6a:	00 00       	nop
  6c:	1e c0       	rjmp	.+60     	; 0xaa <__bad_interrupt>
  6e:	00 00       	nop
  70:	1c c0       	rjmp	.+56     	; 0xaa <__bad_interrupt>
  72:	00 00       	nop

00000074 <__ctors_end>:
  74:	11 24       	eor	r1, r1
  76:	1f be       	out	0x3f, r1	; 63
  78:	cf ef       	ldi	r28, 0xFF	; 255
  7a:	d2 e0       	ldi	r29, 0x02	; 2
  7c:	de bf       	out	0x3e, r29	; 62
  7e:	cd bf       	out	0x3d, r28	; 61

00000080 <__do_copy_data>:
  80:	11 e0       	ldi	r17, 0x01	; 1
  82:	a0 e0       	ldi	r26, 0x00	; 0
  84:	b1 e0       	ldi	r27, 0x01	; 1
  86:	ea e0       	ldi	r30, 0x0A	; 10
  88:	f3 e0       	ldi	r31, 0x03	; 3
  8a:	02 c0       	rjmp	.+4      	; 0x90 <.do_copy_data_start>

0000008c <.do_copy_data_loop>:
  8c:	05 90       	lpm	r0, Z+
  8e:	0d 92       	st	X+, r0

00000090 <.do_copy_data_start>:
  90:	a0 32       	cpi	r26, 0x20	; 32
  92:	b1 07       	cpc	r27, r17
  94:	d9 f7       	brne	.-10     	; 0x8c <.do_copy_data_loop>

00000096 <__do_clear_bss>:
  96:	11 e0       	ldi	r17, 0x01	; 1
  98:	a0 e2       	ldi	r26, 0x20	; 32
  9a:	b1 e0       	ldi	r27, 0x01	; 1
  9c:	01 c0       	rjmp	.+2      	; 0xa0 <.do_clear_bss_start>

0000009e <.do_clear_bss_loop>:
  9e:	1d 92       	st	X+, r1

000000a0 <.do_clear_bss_start>:
  a0:	a1 34       	cpi	r26, 0x41	; 65
  a2:	b1 07       	cpc	r27, r17
  a4:	e1 f7       	brne	.-8      	; 0x9e <.do_clear_bss_loop>
  a6:	02 d0       	rcall	.+4      	; 0xac <main>
  a8:	2e c1       	rjmp	.+604    	; 0x306 <_exit>

000000aa <__bad_interrupt>:
  aa:	aa cf       	rjmp	.-172    	; 0x0 <__vectors>

000000ac <main>:
  ac:	80 e8       	ldi	r24, 0x80	; 128
  ae:	80 93 61 00 	sts	0x0061, r24
  b2:	81 e0       	ldi	r24, 0x01	; 1
  b4:	80 93 61 00 	sts	0x0061, r24
  b8:	78 94       	sei
  ba:	02 d0       	rcall	.+4      	; 0xc0 <_Z14twi_slave_initv>
  bc:	0b d0       	rcall	.+22     	; 0xd4 <_Z16twi_slave_enablev>
  be:	ff cf       	rjmp	.-2      	; 0xbe <main+0x12>

000000c0 <_Z14twi_slave_initv>:
  c0:	58 98       	cbi	0x0b, 0	; 11
  c2:	e9 e6       	ldi	r30, 0x69	; 105
  c4:	f0 e0       	ldi	r31, 0x00	; 0
  c6:	80 81       	ld	r24, Z
  c8:	82 60       	ori	r24, 0x02	; 2
  ca:	80 83       	st	Z, r24
  cc:	dd 24       	eor	r13, r13
  ce:	d3 94       	inc	r13
  d0:	ff 24       	eor	r15, r15
  d2:	08 95       	ret

000000d4 <_Z16twi_slave_enablev>:
  d4:	81 e0       	ldi	r24, 0x01	; 1
  d6:	8c bb       	out	0x1c, r24	; 28
  d8:	e8 9a       	sbi	0x1d, 0	; 29
  da:	08 95       	ret

000000dc <_Z8senddatav>:
  dc:	4e 2d       	mov	r20, r14
  de:	55 27       	eor	r21, r21
  e0:	47 fd       	sbrc	r20, 7
  e2:	50 95       	com	r21
  e4:	27 e0       	ldi	r18, 0x07	; 7
  e6:	30 e0       	ldi	r19, 0x00	; 0
  e8:	32 99       	sbic	0x06, 2	; 6
  ea:	fe cf       	rjmp	.-4      	; 0xe8 <_Z8senddatav+0xc>
  ec:	ca 01       	movw	r24, r20
  ee:	02 2e       	mov	r0, r18
  f0:	02 c0       	rjmp	.+4      	; 0xf6 <_Z8senddatav+0x1a>
  f2:	95 95       	asr	r25
  f4:	87 95       	ror	r24
  f6:	0a 94       	dec	r0
  f8:	e2 f7       	brpl	.-8      	; 0xf2 <_Z8senddatav+0x16>
  fa:	80 ff       	sbrs	r24, 0
  fc:	02 c0       	rjmp	.+4      	; 0x102 <_Z8senddatav+0x26>
  fe:	58 98       	cbi	0x0b, 0	; 11
 100:	01 c0       	rjmp	.+2      	; 0x104 <_Z8senddatav+0x28>
 102:	58 9a       	sbi	0x0b, 0	; 11
 104:	32 9b       	sbis	0x06, 2	; 6
 106:	fe cf       	rjmp	.-4      	; 0x104 <_Z8senddatav+0x28>
 108:	21 50       	subi	r18, 0x01	; 1
 10a:	30 40       	sbci	r19, 0x00	; 0
 10c:	8f ef       	ldi	r24, 0xFF	; 255
 10e:	2f 3f       	cpi	r18, 0xFF	; 255
 110:	38 07       	cpc	r19, r24
 112:	51 f7       	brne	.-44     	; 0xe8 <_Z8senddatav+0xc>
 114:	32 99       	sbic	0x06, 2	; 6
 116:	fe cf       	rjmp	.-4      	; 0x114 <_Z8senddatav+0x38>
 118:	58 98       	cbi	0x0b, 0	; 11
 11a:	32 9b       	sbis	0x06, 2	; 6
 11c:	fe cf       	rjmp	.-4      	; 0x11a <_Z8senddatav+0x3e>
 11e:	48 99       	sbic	0x09, 0	; 9
 120:	03 c0       	rjmp	.+6      	; 0x128 <_Z8senddatav+0x4c>
 122:	98 eb       	ldi	r25, 0xB8	; 184
 124:	f9 2e       	mov	r15, r25
 126:	08 95       	ret
 128:	80 ec       	ldi	r24, 0xC0	; 192
 12a:	f8 2e       	mov	r15, r24
 12c:	08 95       	ret

0000012e <_Z11receivedatav>:
 12e:	30 e0       	ldi	r19, 0x00	; 0
 130:	20 e0       	ldi	r18, 0x00	; 0
 132:	32 9b       	sbis	0x06, 2	; 6
 134:	fe cf       	rjmp	.-4      	; 0x132 <_Z11receivedatav+0x4>
 136:	22 0f       	add	r18, r18
 138:	89 b1       	in	r24, 0x09	; 9
 13a:	81 70       	andi	r24, 0x01	; 1
 13c:	28 2b       	or	r18, r24
 13e:	42 2f       	mov	r20, r18
 140:	55 27       	eor	r21, r21
 142:	47 fd       	sbrc	r20, 7
 144:	50 95       	com	r21
 146:	0f c0       	rjmp	.+30     	; 0x166 <_Z11receivedatav+0x38>
 148:	89 b1       	in	r24, 0x09	; 9
 14a:	90 e0       	ldi	r25, 0x00	; 0
 14c:	84 27       	eor	r24, r20
 14e:	95 27       	eor	r25, r21
 150:	80 ff       	sbrs	r24, 0
 152:	09 c0       	rjmp	.+18     	; 0x166 <_Z11receivedatav+0x38>
 154:	e2 2e       	mov	r14, r18
 156:	48 9b       	sbis	0x09, 0	; 9
 158:	03 c0       	rjmp	.+6      	; 0x160 <_Z11receivedatav+0x32>
 15a:	58 e6       	ldi	r21, 0x68	; 104
 15c:	f5 2e       	mov	r15, r21
 15e:	08 95       	ret
 160:	40 ea       	ldi	r20, 0xA0	; 160
 162:	f4 2e       	mov	r15, r20
 164:	08 95       	ret
 166:	32 99       	sbic	0x06, 2	; 6
 168:	ef cf       	rjmp	.-34     	; 0x148 <_Z11receivedatav+0x1a>
 16a:	3f 5f       	subi	r19, 0xFF	; 255
 16c:	38 30       	cpi	r19, 0x08	; 8
 16e:	09 f7       	brne	.-62     	; 0x132 <_Z11receivedatav+0x4>
 170:	e2 2e       	mov	r14, r18
 172:	dd 20       	and	r13, r13
 174:	51 f0       	breq	.+20     	; 0x18a <_Z11receivedatav+0x5c>
 176:	58 9a       	sbi	0x0b, 0	; 11
 178:	32 9b       	sbis	0x06, 2	; 6
 17a:	fe cf       	rjmp	.-4      	; 0x178 <_Z11receivedatav+0x4a>
 17c:	32 99       	sbic	0x06, 2	; 6
 17e:	fe cf       	rjmp	.-4      	; 0x17c <_Z11receivedatav+0x4e>
 180:	58 98       	cbi	0x0b, 0	; 11
 182:	30 e8       	ldi	r19, 0x80	; 128
 184:	f3 2e       	mov	r15, r19
 186:	dd 24       	eor	r13, r13
 188:	08 95       	ret
 18a:	28 e8       	ldi	r18, 0x88	; 136
 18c:	f2 2e       	mov	r15, r18
 18e:	08 95       	ret

00000190 <_Z17GetStartConditionv>:
 190:	32 9b       	sbis	0x06, 2	; 6
 192:	31 c0       	rjmp	.+98     	; 0x1f6 <_Z17GetStartConditionv+0x66>
 194:	e8 98       	cbi	0x1d, 0	; 29
 196:	ff 20       	and	r15, r15
 198:	11 f0       	breq	.+4      	; 0x19e <_Z17GetStartConditionv+0xe>
 19a:	80 e0       	ldi	r24, 0x00	; 0
 19c:	37 c0       	rjmp	.+110    	; 0x20c <_Z17GetStartConditionv+0x7c>
 19e:	32 99       	sbic	0x06, 2	; 6
 1a0:	fe cf       	rjmp	.-4      	; 0x19e <_Z17GetStartConditionv+0xe>
 1a2:	20 e0       	ldi	r18, 0x00	; 0
 1a4:	30 e0       	ldi	r19, 0x00	; 0
 1a6:	32 9b       	sbis	0x06, 2	; 6
 1a8:	fe cf       	rjmp	.-4      	; 0x1a6 <_Z17GetStartConditionv+0x16>
 1aa:	89 b1       	in	r24, 0x09	; 9
 1ac:	81 70       	andi	r24, 0x01	; 1
 1ae:	22 0f       	add	r18, r18
 1b0:	28 2b       	or	r18, r24
 1b2:	48 2f       	mov	r20, r24
 1b4:	50 e0       	ldi	r21, 0x00	; 0
 1b6:	0a c0       	rjmp	.+20     	; 0x1cc <_Z17GetStartConditionv+0x3c>
 1b8:	99 27       	eor	r25, r25
 1ba:	87 fd       	sbrc	r24, 7
 1bc:	90 95       	com	r25
 1be:	48 17       	cp	r20, r24
 1c0:	59 07       	cpc	r21, r25
 1c2:	11 f0       	breq	.+4      	; 0x1c8 <_Z17GetStartConditionv+0x38>
 1c4:	89 b1       	in	r24, 0x09	; 9
 1c6:	12 c0       	rjmp	.+36     	; 0x1ec <_Z17GetStartConditionv+0x5c>
 1c8:	89 b1       	in	r24, 0x09	; 9
 1ca:	81 70       	andi	r24, 0x01	; 1
 1cc:	32 99       	sbic	0x06, 2	; 6
 1ce:	f4 cf       	rjmp	.-24     	; 0x1b8 <_Z17GetStartConditionv+0x28>
 1d0:	3f 5f       	subi	r19, 0xFF	; 255
 1d2:	38 30       	cpi	r19, 0x08	; 8
 1d4:	41 f7       	brne	.-48     	; 0x1a6 <_Z17GetStartConditionv+0x16>
 1d6:	82 2f       	mov	r24, r18
 1d8:	8e 7f       	andi	r24, 0xFE	; 254
 1da:	84 3a       	cpi	r24, 0xA4	; 164
 1dc:	39 f4       	brne	.+14     	; 0x1ec <_Z17GetStartConditionv+0x5c>
 1de:	58 9a       	sbi	0x0b, 0	; 11
 1e0:	32 9b       	sbis	0x06, 2	; 6
 1e2:	fe cf       	rjmp	.-4      	; 0x1e0 <_Z17GetStartConditionv+0x50>
 1e4:	32 99       	sbic	0x06, 2	; 6
 1e6:	fe cf       	rjmp	.-4      	; 0x1e4 <_Z17GetStartConditionv+0x54>
 1e8:	58 98       	cbi	0x0b, 0	; 11
 1ea:	01 c0       	rjmp	.+2      	; 0x1ee <_Z17GetStartConditionv+0x5e>
 1ec:	20 e0       	ldi	r18, 0x00	; 0
 1ee:	82 2f       	mov	r24, r18
 1f0:	22 23       	and	r18, r18
 1f2:	29 f4       	brne	.+10     	; 0x1fe <_Z17GetStartConditionv+0x6e>
 1f4:	ff 24       	eor	r15, r15
 1f6:	81 e0       	ldi	r24, 0x01	; 1
 1f8:	8c bb       	out	0x1c, r24	; 28
 1fa:	e8 9a       	sbi	0x1d, 0	; 29
 1fc:	08 95       	ret
 1fe:	20 ff       	sbrs	r18, 0
 200:	03 c0       	rjmp	.+6      	; 0x208 <_Z17GetStartConditionv+0x78>
 202:	78 ea       	ldi	r23, 0xA8	; 168
 204:	f7 2e       	mov	r15, r23
 206:	02 c0       	rjmp	.+4      	; 0x20c <_Z17GetStartConditionv+0x7c>
 208:	60 e6       	ldi	r22, 0x60	; 96
 20a:	f6 2e       	mov	r15, r22
 20c:	e8 2e       	mov	r14, r24
 20e:	08 95       	ret

00000210 <_Z17TWI_state_machinev>:
 210:	1f 93       	push	r17
 212:	11 e0       	ldi	r17, 0x01	; 1
 214:	8f 2d       	mov	r24, r15
 216:	88 3b       	cpi	r24, 0xB8	; 184
 218:	a9 f1       	breq	.+106    	; 0x284 <_Z17TWI_state_machinev+0x74>
 21a:	89 3b       	cpi	r24, 0xB9	; 185
 21c:	6c f4       	brge	.+26     	; 0x238 <_Z17TWI_state_machinev+0x28>
 21e:	88 38       	cpi	r24, 0x88	; 136
 220:	e1 f0       	breq	.+56     	; 0x25a <_Z17TWI_state_machinev+0x4a>
 222:	89 38       	cpi	r24, 0x89	; 137
 224:	24 f4       	brge	.+8      	; 0x22e <_Z17TWI_state_machinev+0x1e>
 226:	80 38       	cpi	r24, 0x80	; 128
 228:	09 f0       	breq	.+2      	; 0x22c <_Z17TWI_state_machinev+0x1c>
 22a:	40 c0       	rjmp	.+128    	; 0x2ac <_Z17TWI_state_machinev+0x9c>
 22c:	18 c0       	rjmp	.+48     	; 0x25e <_Z17TWI_state_machinev+0x4e>
 22e:	80 3a       	cpi	r24, 0xA0	; 160
 230:	d9 f1       	breq	.+118    	; 0x2a8 <_Z17TWI_state_machinev+0x98>
 232:	88 3a       	cpi	r24, 0xA8	; 168
 234:	d9 f5       	brne	.+118    	; 0x2ac <_Z17TWI_state_machinev+0x9c>
 236:	21 c0       	rjmp	.+66     	; 0x27a <_Z17TWI_state_machinev+0x6a>
 238:	88 3c       	cpi	r24, 0xC8	; 200
 23a:	91 f1       	breq	.+100    	; 0x2a0 <_Z17TWI_state_machinev+0x90>
 23c:	89 3c       	cpi	r24, 0xC9	; 201
 23e:	1c f4       	brge	.+6      	; 0x246 <_Z17TWI_state_machinev+0x36>
 240:	80 3c       	cpi	r24, 0xC0	; 192
 242:	a1 f5       	brne	.+104    	; 0x2ac <_Z17TWI_state_machinev+0x9c>
 244:	2d c0       	rjmp	.+90     	; 0x2a0 <_Z17TWI_state_machinev+0x90>
 246:	80 36       	cpi	r24, 0x60	; 96
 248:	19 f0       	breq	.+6      	; 0x250 <_Z17TWI_state_machinev+0x40>
 24a:	88 36       	cpi	r24, 0x68	; 104
 24c:	79 f5       	brne	.+94     	; 0x2ac <_Z17TWI_state_machinev+0x9c>
 24e:	28 c0       	rjmp	.+80     	; 0x2a0 <_Z17TWI_state_machinev+0x90>
 250:	e0 92 20 01 	sts	0x0120, r14
 254:	10 93 40 01 	sts	0x0140, r17
 258:	0c c0       	rjmp	.+24     	; 0x272 <_Z17TWI_state_machinev+0x62>
 25a:	ff 24       	eor	r15, r15
 25c:	27 c0       	rjmp	.+78     	; 0x2ac <_Z17TWI_state_machinev+0x9c>
 25e:	80 91 40 01 	lds	r24, 0x0140
 262:	e8 2f       	mov	r30, r24
 264:	f0 e0       	ldi	r31, 0x00	; 0
 266:	e0 5e       	subi	r30, 0xE0	; 224
 268:	fe 4f       	sbci	r31, 0xFE	; 254
 26a:	e0 82       	st	Z, r14
 26c:	8f 5f       	subi	r24, 0xFF	; 255
 26e:	80 93 40 01 	sts	0x0140, r24
 272:	dd 24       	eor	r13, r13
 274:	d3 94       	inc	r13
 276:	5b df       	rcall	.-330    	; 0x12e <_Z11receivedatav>
 278:	cd cf       	rjmp	.-102    	; 0x214 <_Z17TWI_state_machinev+0x4>
 27a:	e0 90 00 01 	lds	r14, 0x0100
 27e:	10 93 40 01 	sts	0x0140, r17
 282:	0a c0       	rjmp	.+20     	; 0x298 <_Z17TWI_state_machinev+0x88>
 284:	80 91 40 01 	lds	r24, 0x0140
 288:	e8 2f       	mov	r30, r24
 28a:	f0 e0       	ldi	r31, 0x00	; 0
 28c:	e0 50       	subi	r30, 0x00	; 0
 28e:	ff 4f       	sbci	r31, 0xFF	; 255
 290:	e0 80       	ld	r14, Z
 292:	8f 5f       	subi	r24, 0xFF	; 255
 294:	80 93 40 01 	sts	0x0140, r24
 298:	dd 24       	eor	r13, r13
 29a:	d3 94       	inc	r13
 29c:	1f df       	rcall	.-450    	; 0xdc <_Z8senddatav>
 29e:	ba cf       	rjmp	.-140    	; 0x214 <_Z17TWI_state_machinev+0x4>
 2a0:	dd 24       	eor	r13, r13
 2a2:	d3 94       	inc	r13
 2a4:	ff 24       	eor	r15, r15
 2a6:	04 c0       	rjmp	.+8      	; 0x2b0 <_Z17TWI_state_machinev+0xa0>
 2a8:	73 df       	rcall	.-282    	; 0x190 <_Z17GetStartConditionv>
 2aa:	b4 cf       	rjmp	.-152    	; 0x214 <_Z17TWI_state_machinev+0x4>
 2ac:	dd 24       	eor	r13, r13
 2ae:	d3 94       	inc	r13
 2b0:	1f 91       	pop	r17
 2b2:	08 95       	ret

000002b4 <__vector_1>:
 2b4:	1f 92       	push	r1
 2b6:	0f 92       	push	r0
 2b8:	0f b6       	in	r0, 0x3f	; 63
 2ba:	0f 92       	push	r0
 2bc:	11 24       	eor	r1, r1
 2be:	2f 93       	push	r18
 2c0:	3f 93       	push	r19
 2c2:	4f 93       	push	r20
 2c4:	5f 93       	push	r21
 2c6:	6f 93       	push	r22
 2c8:	7f 93       	push	r23
 2ca:	8f 93       	push	r24
 2cc:	9f 93       	push	r25
 2ce:	af 93       	push	r26
 2d0:	bf 93       	push	r27
 2d2:	ef 93       	push	r30
 2d4:	ff 93       	push	r31
 2d6:	ff 20       	and	r15, r15
 2d8:	09 f4       	brne	.+2      	; 0x2dc <__vector_1+0x28>
 2da:	5a df       	rcall	.-332    	; 0x190 <_Z17GetStartConditionv>
 2dc:	99 df       	rcall	.-206    	; 0x210 <_Z17TWI_state_machinev>
 2de:	81 e0       	ldi	r24, 0x01	; 1
 2e0:	8c bb       	out	0x1c, r24	; 28
 2e2:	e8 9a       	sbi	0x1d, 0	; 29
 2e4:	ff 91       	pop	r31
 2e6:	ef 91       	pop	r30
 2e8:	bf 91       	pop	r27
 2ea:	af 91       	pop	r26
 2ec:	9f 91       	pop	r25
 2ee:	8f 91       	pop	r24
 2f0:	7f 91       	pop	r23
 2f2:	6f 91       	pop	r22
 2f4:	5f 91       	pop	r21
 2f6:	4f 91       	pop	r20
 2f8:	3f 91       	pop	r19
 2fa:	2f 91       	pop	r18
 2fc:	0f 90       	pop	r0
 2fe:	0f be       	out	0x3f, r0	; 63
 300:	0f 90       	pop	r0
 302:	1f 90       	pop	r1
 304:	18 95       	reti

00000306 <_exit>:
 306:	f8 94       	cli

00000308 <__stop_program>:
 308:	ff cf       	rjmp	.-2      	; 0x308 <__stop_program>
